; ModuleID = '31/509.c'
source_filename = "31/509.c"
target datalayout = "e-m:e-p270:32:32-p271:32:32-p272:64:64-i64:64-f80:128-n8:16:32:64-S128"
target triple = "x86_64-pc-linux-gnu"

%struct.stu = type { [20 x i8], [30 x i8], i8, i32, [6 x i8], [20 x i8], %struct.stu* }

@.str = private unnamed_addr constant [3 x i8] c"%s\00", align 1
@.str.1 = private unnamed_addr constant [4 x i8] c"end\00", align 1
@.str.2 = private unnamed_addr constant [15 x i8] c"%s %c %d %s %s\00", align 1
@.str.3 = private unnamed_addr constant [19 x i8] c"%s %s %c %d %s %s\0A\00", align 1

; Function Attrs: noinline nounwind uwtable
define dso_local i32 @main() #0 {
  %1 = alloca i32, align 4
  %2 = alloca i32, align 4
  %3 = alloca %struct.stu*, align 8
  %4 = alloca %struct.stu*, align 8
  %5 = alloca %struct.stu*, align 8
  store i32 0, i32* %1, align 4
  store i32 0, i32* %2, align 4
  store %struct.stu* null, %struct.stu** %3, align 8
  %6 = call noalias i8* @malloc(i64 100) #4
  %7 = bitcast i8* %6 to %struct.stu*
  store %struct.stu* %7, %struct.stu** %4, align 8
  store %struct.stu* %7, %struct.stu** %5, align 8
  %8 = load %struct.stu*, %struct.stu** %4, align 8
  %9 = getelementptr inbounds %struct.stu, %struct.stu* %8, i32 0, i32 0
  %10 = getelementptr inbounds [20 x i8], [20 x i8]* %9, i64 0, i64 0
  %11 = call i32 (i8*, ...) @__isoc99_scanf(i8* getelementptr inbounds ([3 x i8], [3 x i8]* @.str, i64 0, i64 0), i8* %10)
  br label %12

12:                                               ; preds = %28, %0
  %13 = load %struct.stu*, %struct.stu** %4, align 8
  %14 = getelementptr inbounds %struct.stu, %struct.stu* %13, i32 0, i32 0
  %15 = getelementptr inbounds [20 x i8], [20 x i8]* %14, i64 0, i64 0
  %16 = call i32 @strcmp(i8* %15, i8* getelementptr inbounds ([4 x i8], [4 x i8]* @.str.1, i64 0, i64 0)) #5
  %17 = icmp ne i32 %16, 0
  br i1 %17, label %18, label %52

18:                                               ; preds = %12
  %19 = load i32, i32* %2, align 4
  %20 = icmp ne i32 %19, 0
  br i1 %20, label %21, label %25

21:                                               ; preds = %18
  %22 = load %struct.stu*, %struct.stu** %5, align 8
  %23 = load %struct.stu*, %struct.stu** %4, align 8
  %24 = getelementptr inbounds %struct.stu, %struct.stu* %23, i32 0, i32 6
  store %struct.stu* %22, %struct.stu** %24, align 8
  br label %28

25:                                               ; preds = %18
  %26 = load %struct.stu*, %struct.stu** %4, align 8
  %27 = getelementptr inbounds %struct.stu, %struct.stu* %26, i32 0, i32 6
  store %struct.stu* null, %struct.stu** %27, align 8
  br label %28

28:                                               ; preds = %25, %21
  %29 = load i32, i32* %2, align 4
  %30 = add nsw i32 %29, 1
  store i32 %30, i32* %2, align 4
  %31 = load %struct.stu*, %struct.stu** %4, align 8
  %32 = getelementptr inbounds %struct.stu, %struct.stu* %31, i32 0, i32 1
  %33 = getelementptr inbounds [30 x i8], [30 x i8]* %32, i64 0, i64 0
  %34 = load %struct.stu*, %struct.stu** %4, align 8
  %35 = getelementptr inbounds %struct.stu, %struct.stu* %34, i32 0, i32 2
  %36 = load %struct.stu*, %struct.stu** %4, align 8
  %37 = getelementptr inbounds %struct.stu, %struct.stu* %36, i32 0, i32 3
  %38 = load %struct.stu*, %struct.stu** %4, align 8
  %39 = getelementptr inbounds %struct.stu, %struct.stu* %38, i32 0, i32 4
  %40 = getelementptr inbounds [6 x i8], [6 x i8]* %39, i64 0, i64 0
  %41 = load %struct.stu*, %struct.stu** %4, align 8
  %42 = getelementptr inbounds %struct.stu, %struct.stu* %41, i32 0, i32 5
  %43 = getelementptr inbounds [20 x i8], [20 x i8]* %42, i64 0, i64 0
  %44 = call i32 (i8*, ...) @__isoc99_scanf(i8* getelementptr inbounds ([15 x i8], [15 x i8]* @.str.2, i64 0, i64 0), i8* %33, i8* %35, i32* %37, i8* %40, i8* %43)
  %45 = load %struct.stu*, %struct.stu** %4, align 8
  store %struct.stu* %45, %struct.stu** %5, align 8
  %46 = call noalias i8* @malloc(i64 100) #4
  %47 = bitcast i8* %46 to %struct.stu*
  store %struct.stu* %47, %struct.stu** %4, align 8
  %48 = load %struct.stu*, %struct.stu** %4, align 8
  %49 = getelementptr inbounds %struct.stu, %struct.stu* %48, i32 0, i32 0
  %50 = getelementptr inbounds [20 x i8], [20 x i8]* %49, i64 0, i64 0
  %51 = call i32 (i8*, ...) @__isoc99_scanf(i8* getelementptr inbounds ([3 x i8], [3 x i8]* @.str, i64 0, i64 0), i8* %50)
  br label %12

52:                                               ; preds = %12
  br label %53

53:                                               ; preds = %56, %52
  %54 = load %struct.stu*, %struct.stu** %5, align 8
  %55 = icmp ne %struct.stu* %54, null
  br i1 %55, label %56, label %80

56:                                               ; preds = %53
  %57 = load %struct.stu*, %struct.stu** %5, align 8
  %58 = getelementptr inbounds %struct.stu, %struct.stu* %57, i32 0, i32 0
  %59 = getelementptr inbounds [20 x i8], [20 x i8]* %58, i64 0, i64 0
  %60 = load %struct.stu*, %struct.stu** %5, align 8
  %61 = getelementptr inbounds %struct.stu, %struct.stu* %60, i32 0, i32 1
  %62 = getelementptr inbounds [30 x i8], [30 x i8]* %61, i64 0, i64 0
  %63 = load %struct.stu*, %struct.stu** %5, align 8
  %64 = getelementptr inbounds %struct.stu, %struct.stu* %63, i32 0, i32 2
  %65 = load i8, i8* %64, align 2
  %66 = sext i8 %65 to i32
  %67 = load %struct.stu*, %struct.stu** %5, align 8
  %68 = getelementptr inbounds %struct.stu, %struct.stu* %67, i32 0, i32 3
  %69 = load i32, i32* %68, align 4
  %70 = load %struct.stu*, %struct.stu** %5, align 8
  %71 = getelementptr inbounds %struct.stu, %struct.stu* %70, i32 0, i32 4
  %72 = getelementptr inbounds [6 x i8], [6 x i8]* %71, i64 0, i64 0
  %73 = load %struct.stu*, %struct.stu** %5, align 8
  %74 = getelementptr inbounds %struct.stu, %struct.stu* %73, i32 0, i32 5
  %75 = getelementptr inbounds [20 x i8], [20 x i8]* %74, i64 0, i64 0
  %76 = call i32 (i8*, ...) @printf(i8* getelementptr inbounds ([19 x i8], [19 x i8]* @.str.3, i64 0, i64 0), i8* %59, i8* %62, i32 %66, i32 %69, i8* %72, i8* %75)
  %77 = load %struct.stu*, %struct.stu** %5, align 8
  %78 = getelementptr inbounds %struct.stu, %struct.stu* %77, i32 0, i32 6
  %79 = load %struct.stu*, %struct.stu** %78, align 8
  store %struct.stu* %79, %struct.stu** %5, align 8
  br label %53

80:                                               ; preds = %53
  ret i32 0
}

; Function Attrs: nounwind
declare dso_local noalias i8* @malloc(i64) #1

declare dso_local i32 @__isoc99_scanf(i8*, ...) #2

; Function Attrs: nounwind readonly
declare dso_local i32 @strcmp(i8*, i8*) #3

declare dso_local i32 @printf(i8*, ...) #2


!llvm.module.flags = !{!0}
!llvm.ident = !{!1}

!0 = !{i32 1, !"wchar_size", i32 4}
!1 = !{!"clang version 10.0.0-4ubuntu1 "}
